Certificate:
    Data:
        Version: 3 (0x2)
        Serial Number:
            88:a7:ae:ab:8e:4b:92:3b
        Signature Algorithm: sha1WithRSAEncryption
        Issuer: C=DE, ST=Berlin, O=Fraunhofer, OU=FOKUS, CN=BonFIRE-RootCA/emailAddress=thomas.guenther@fokus.fraunhofer.de
        Validity
            Not Before: Feb  9 12:49:43 2015 GMT
            Not After : Feb  8 12:49:43 2017 GMT
        Subject: C=FR, ST=Bretagne, L=Rennes, O=Inria, OU=Myriads, CN=vagrant-sfa.paralivrable.irisa.fr/emailAddress=david.margery@inria.fr
        Subject Public Key Info:
            Public Key Algorithm: rsaEncryption
            RSA Public Key: (2048 bit)
                Modulus (2048 bit):
                    00:d7:8c:04:ce:ab:13:3c:42:3c:ba:53:d1:8d:f6:
                    7a:b0:04:e8:35:e6:eb:b3:28:04:e7:1a:e4:c3:12:
                    f8:3a:2e:df:b8:36:53:c8:14:9b:3f:f1:e3:5b:98:
                    de:27:18:da:c4:c2:0f:53:cf:ae:0f:b1:e4:e8:8b:
                    40:f1:9a:54:40:ea:d6:a9:f0:f9:3a:94:b0:30:9a:
                    2e:cb:fa:9f:32:e8:d9:ea:37:f2:49:31:29:a0:70:
                    c2:c0:e5:36:5f:0b:55:86:ae:44:dd:24:fd:4b:96:
                    08:df:98:63:d3:33:35:9d:a2:d0:36:ce:fe:b8:20:
                    e1:ca:c7:dc:c4:a8:cd:7e:97:9c:3c:33:d4:ba:29:
                    89:b7:ba:39:9a:42:2a:7b:9a:6e:06:39:e9:6e:89:
                    9e:b0:a1:7b:88:95:0c:f5:00:2f:f9:14:0c:ea:07:
                    8f:df:68:02:2e:8b:66:70:e0:27:19:56:e2:3d:8e:
                    b7:3e:22:e9:1f:39:ba:6a:aa:eb:8b:e6:86:48:28:
                    26:98:73:22:cf:f6:e5:3a:76:ea:71:ce:f7:1b:01:
                    b6:ae:97:19:23:3f:a0:11:6e:38:cb:5d:3f:ae:fe:
                    20:f2:19:b4:a2:dd:63:03:e7:9b:d0:cd:5d:86:7b:
                    8f:17:a9:aa:d0:e7:9e:32:e6:1e:e9:a6:68:24:d8:
                    f9:ad
                Exponent: 65537 (0x10001)
        X509v3 extensions:
            X509v3 Basic Constraints: 
                CA:FALSE
            Netscape Comment: 
                OpenSSL Generated Certificate
            X509v3 Subject Key Identifier: 
                E8:55:E5:CF:C3:27:1B:42:33:5F:12:B0:4E:8C:5F:3C:4A:E7:C3:1D
            X509v3 Authority Key Identifier: 
                keyid:25:EE:54:2B:29:8C:6B:00:DC:1F:D4:0A:18:68:5C:AA:1F:06:6B:9B

    Signature Algorithm: sha1WithRSAEncryption
        3a:6f:b7:6c:a5:14:94:dc:7c:9b:19:9b:d6:12:37:67:73:90:
        02:76:9b:0c:ff:77:f2:d2:3f:5b:bb:0b:b7:e4:17:05:6c:20:
        b9:55:1c:90:a2:e3:6b:db:a7:8f:0e:d1:3b:af:2c:a7:a0:b5:
        fe:48:a2:b7:89:6a:04:ec:48:c2:a0:35:f4:8e:5c:08:1c:6b:
        1b:e6:3e:2f:03:43:da:ea:5e:b5:ec:71:b6:6f:4b:f4:da:d7:
        0b:de:da:7d:aa:19:4e:be:d9:6e:71:16:e6:79:b8:85:2f:a7:
        d8:eb:c6:d0:11:4d:82:df:02:3e:c7:39:cd:10:75:bb:ce:1f:
        4b:c0:a4:8e:dd:be:c2:a1:19:29:10:73:cd:0d:36:20:f7:2d:
        c3:1d:11:89:87:3f:26:b6:d1:7c:1b:3c:c5:ca:7b:7e:02:05:
        6e:59:f8:f7:e5:93:69:0d:e8:d6:bb:dd:84:5e:3c:e1:44:51:
        06:ad:93:a8:99:52:e6:a4:82:1b:76:d6:82:24:b4:1c:c7:1d:
        7b:ff:77:49:f5:89:b1:b6:24:2d:c7:5b:ac:e6:25:b9:19:e3:
        de:10:3c:78:ae:97:30:0d:64:1b:90:1c:02:24:b7:98:de:4d:
        42:6b:9d:6d:60:b1:14:8f:8b:bb:9f:c0:a4:f2:db:f0:e4:21:
        a1:b0:5a:af
-----BEGIN CERTIFICATE-----
MIIENjCCAx6gAwIBAgIJAIinrquOS5I7MA0GCSqGSIb3DQEBBQUAMIGQMQswCQYD
VQQGEwJERTEPMA0GA1UECBMGQmVybGluMRMwEQYDVQQKEwpGcmF1bmhvZmVyMQ4w
DAYDVQQLEwVGT0tVUzEXMBUGA1UEAxMOQm9uRklSRS1Sb290Q0ExMjAwBgkqhkiG
9w0BCQEWI3Rob21hcy5ndWVudGhlckBmb2t1cy5mcmF1bmhvZmVyLmRlMB4XDTE1
MDIwOTEyNDk0M1oXDTE3MDIwODEyNDk0M1owgaYxCzAJBgNVBAYTAkZSMREwDwYD
VQQIEwhCcmV0YWduZTEPMA0GA1UEBxMGUmVubmVzMQ4wDAYDVQQKEwVJbnJpYTEQ
MA4GA1UECxMHTXlyaWFkczEqMCgGA1UEAxMhdmFncmFudC1zZmEucGFyYWxpdnJh
YmxlLmlyaXNhLmZyMSUwIwYJKoZIhvcNAQkBFhZkYXZpZC5tYXJnZXJ5QGlucmlh
LmZyMIIBIjANBgkqhkiG9w0BAQEFAAOCAQ8AMIIBCgKCAQEA14wEzqsTPEI8ulPR
jfZ6sAToNebrsygE5xrkwxL4Oi7fuDZTyBSbP/HjW5jeJxjaxMIPU8+uD7Hk6ItA
8ZpUQOrWqfD5OpSwMJouy/qfMujZ6jfySTEpoHDCwOU2XwtVhq5E3ST9S5YI35hj
0zM1naLQNs7+uCDhysfcxKjNfpecPDPUuimJt7o5mkIqe5puBjnpbomesKF7iJUM
9QAv+RQM6geP32gCLotmcOAnGVbiPY63PiLpHzm6aqrri+aGSCgmmHMiz/blOnbq
cc73GwG2rpcZIz+gEW44y10/rv4g8hm0ot1jA+eb0M1dhnuPF6mq0OeeMuYe6aZo
JNj5rQIDAQABo3sweTAJBgNVHRMEAjAAMCwGCWCGSAGG+EIBDQQfFh1PcGVuU1NM
IEdlbmVyYXRlZCBDZXJ0aWZpY2F0ZTAdBgNVHQ4EFgQU6FXlz8MnG0IzXxKwToxf
PErnwx0wHwYDVR0jBBgwFoAUJe5UKymMawDcH9QKGGhcqh8Ga5swDQYJKoZIhvcN
AQEFBQADggEBADpvt2ylFJTcfJsZm9YSN2dzkAJ2mwz/d/LSP1u7C7fkFwVsILlV
HJCi42vbp48O0TuvLKegtf5IoreJagTsSMKgNfSOXAgcaxvmPi8DQ9rqXrXscbZv
S/Ta1wve2n2qGU6+2W5xFuZ5uIUvp9jrxtARTYLfAj7HOc0QdbvOH0vApI7dvsKh
GSkQc80NNiD3LcMdEYmHPya20XwbPMXKe34CBW5Z+Pflk2kN6Na73YRePOFEUQat
k6iZUuakght21oIktBzHHXv/d0n1ibG2JC3HW6zmJbkZ494QPHiulzANZBuQHAIk
t5jeTUJrnW1gsRSPi7ufwKTy2/DkIaGwWq8=
-----END CERTIFICATE-----
